target datalayout = "e-m:e-p270:32:32-p271:32:32-p272:64:64-i64:64-i128:128-f80:128-n8:16:32:64-S128"
target triple = "x86_64-pc-linux-gnu"

%struct.ht_config_st = type { ptr, ptr, ptr, i64, i32, i32 }

@__const.FuzzerInitialize.fuzz_conf = private unnamed_addr constant %struct.ht_config_st { ptr null, ptr @fuzz_free_cb, ptr null, i64 0, i32 1, i32 0 }, align 8
@.str = private unnamed_addr constant [28 x i8] c"../openssl/fuzz/hashtable.c\00", align 1
@prediction_table = internal global ptr null, align 8
@fuzzer_table = internal global ptr null, align 8

; Function Attrs: nounwind uwtable
define dso_local i32 @FuzzerInitialize(ptr noundef %0, ptr noundef %1) #0 {
  %3 = alloca i32, align 4
  %4 = alloca ptr, align 8
  %5 = alloca ptr, align 8
  %6 = alloca %struct.ht_config_st, align 8
  %7 = alloca i32, align 4
  store ptr %0, ptr %4, align 8, !tbaa !4
  store ptr %1, ptr %5, align 8, !tbaa !9
  call void @llvm.lifetime.start.p0(i64 40, ptr %6) #6
  call void @llvm.memcpy.p0.p0.i64(ptr align 8 %6, ptr align 8 @__const.FuzzerInitialize.fuzz_conf, i64 40, i1 false)
  %8 = call i32 @OPENSSL_init_crypto(i64 noundef 2, ptr noundef null)
  call void @ERR_clear_error()
  %9 = call noalias ptr @CRYPTO_zalloc(i64 noundef 1048592, ptr noundef @.str, i32 noundef 106)
  store ptr %9, ptr @prediction_table, align 8, !tbaa !11
  %10 = load ptr, ptr @prediction_table, align 8, !tbaa !11
  %11 = icmp eq ptr %10, null
  br i1 %11, label %12, label %13

12:                                               ; preds = %2
  store i32 -1, ptr %3, align 4
  store i32 1, ptr %7, align 4
  br label %20

13:                                               ; preds = %2
  %14 = call ptr @ossl_ht_new(ptr noundef %6)
  store ptr %14, ptr @fuzzer_table, align 8, !tbaa !13
  %15 = load ptr, ptr @fuzzer_table, align 8, !tbaa !13
  %16 = icmp eq ptr %15, null
  br i1 %16, label %17, label %19

17:                                               ; preds = %13
  %18 = load ptr, ptr @prediction_table, align 8, !tbaa !11
  call void @CRYPTO_free(ptr noundef %18, ptr noundef @.str, i32 noundef 111)
  store i32 -1, ptr %3, align 4
  store i32 1, ptr %7, align 4
  br label %20

19:                                               ; preds = %13
  store i32 0, ptr %3, align 4
  store i32 1, ptr %7, align 4
  br label %20

20:                                               ; preds = %19, %17, %12
  call void @llvm.lifetime.end.p0(i64 40, ptr %6) #6
  %21 = load i32, ptr %3, align 4
  ret i32 %21
}