; Function Attrs: nounwind uwtable
define dso_local range(i32 -1, 1) i32 @FuzzerInitialize(ptr noundef readnone captures(none) %0, ptr noundef readnone captures(none) %1) local_unnamed_addr #0 {
  %3 = alloca %struct.ht_config_st, align 8
  call void @llvm.lifetime.start.p0(i64 40, ptr nonnull %3) #8
  call void @llvm.memcpy.p0.p0.i64(ptr noundef nonnull align 8 dereferenceable(40) %3, ptr noundef nonnull align 8 dereferenceable(40) @__const.FuzzerInitialize.fuzz_conf, i64 40, i1 false)
  %4 = tail call i32 @OPENSSL_init_crypto(i64 noundef 2, ptr noundef null) #8
  tail call void @ERR_clear_error() #8
  %5 = tail call noalias ptr @CRYPTO_zalloc(i64 noundef 1048592, ptr noundef nonnull @.str, i32 noundef 106) #8
  store ptr %5, ptr @prediction_table, align 8, !tbaa !4
  %6 = icmp eq ptr %5, null
  br i1 %6, label %12, label %7

7:                                                ; preds = %2
  %8 = call ptr @ossl_ht_new(ptr noundef nonnull %3) #8
  store ptr %8, ptr @fuzzer_table, align 8, !tbaa !9
  %9 = icmp eq ptr %8, null
  br i1 %9, label %10, label %12

10:                                               ; preds = %7
  %11 = load ptr, ptr @prediction_table, align 8, !tbaa !4
  call void @CRYPTO_free(ptr noundef %11, ptr noundef nonnull @.str, i32 noundef 111) #8
  br label %12

12:                                               ; preds = %7, %2, %10
  %.0 = phi i32 [ -1, %10 ], [ -1, %2 ], [ 0, %7 ]
  call void @llvm.lifetime.end.p0(i64 40, ptr nonnull %3) #8
  ret i32 %.0
}